target datalayout = "e-m:e-p270:32:32-p271:32:32-p272:64:64-i64:64-i128:128-f80:128-n8:16:32:64-S128"
target triple = "x86_64-unknown-linux-gnu"

%class.btVector3 = type { [4 x float] }
%class.btHingeConstraint = type { %class.btTypedConstraint, [3 x %class.btJacobianEntry], [3 x %class.btJacobianEntry], %class.btTransform, %class.btTransform, float, float, %class.btAngularLimit, float, float, float, float, i8, i8, i8, i8, i8, float, i32, float, float, float, float }
%class.btTypedConstraint = type { ptr, %struct.btTypedObject, i32, %union.anon.0, float, i8, i8, i32, ptr, ptr, float, float, ptr }
%struct.btTypedObject = type { i32 }
%union.anon.0 = type { ptr }
%class.btJacobianEntry = type { %class.btVector3, %class.btVector3, %class.btVector3, %class.btVector3, %class.btVector3, float }
%class.btTransform = type { %class.btMatrix3x3, %class.btVector3 }
%class.btMatrix3x3 = type { [3 x %class.btVector3] }
%class.btAngularLimit = type <{ float, float, float, float, float, float, float, i8, [3 x i8] }>
%class.btCollisionObject = type <{ ptr, %class.btTransform, %class.btTransform, %class.btVector3, %class.btVector3, %class.btVector3, i32, float, ptr, ptr, ptr, ptr, i32, i32, i32, i32, i32, float, float, float, float, float, float, float, i32, [4 x i8], ptr, i32, i32, i32, float, float, float, i32, [4 x i8], %class.btAlignedObjectArray, i32, %class.btVector3, [4 x i8] }>
%class.btAlignedObjectArray = type <{ %class.btAlignedAllocator, [3 x i8], i32, i32, [4 x i8], ptr, i8, [7 x i8] }>
%class.btAlignedAllocator = type { i8 }

; Function Attrs: mustprogress nounwind uwtable
define linkonce_odr dso_local noundef nonnull align 4 dereferenceable(16) ptr @_ZNK11btMatrix3x3ixEi(ptr noundef nonnull align 4 dereferenceable(48) %this, i32 noundef %i) #1 comdat align 2 {
entry:
  %this.addr = alloca ptr, align 8
  %i.addr = alloca i32, align 4
  store ptr %this, ptr %this.addr, align 8
  store i32 %i, ptr %i.addr, align 4
  %this1 = load ptr, ptr %this.addr, align 8
  %m_el = getelementptr inbounds %class.btMatrix3x3, ptr %this1, i32 0, i32 0
  %0 = load i32, ptr %i.addr, align 4
  %idxprom = sext i32 %0 to i64
  %arrayidx = getelementptr inbounds [3 x %class.btVector3], ptr %m_el, i64 0, i64 %idxprom
  ret ptr %arrayidx
}

; Function Attrs: mustprogress nounwind uwtable
define linkonce_odr dso_local void @_ZN9btVector3C2ERKfS1_S1_(ptr noundef nonnull align 4 dereferenceable(16) %this, ptr noundef nonnull align 4 dereferenceable(4) %_x, ptr noundef nonnull align 4 dereferenceable(4) %_y, ptr noundef nonnull align 4 dereferenceable(4) %_z) unnamed_addr #1 comdat align 2 {
entry:
  %this.addr = alloca ptr, align 8
  %_x.addr = alloca ptr, align 8
  %_y.addr = alloca ptr, align 8
  %_z.addr = alloca ptr, align 8
  store ptr %this, ptr %this.addr, align 8
  store ptr %_x, ptr %_x.addr, align 8
  store ptr %_y, ptr %_y.addr, align 8
  store ptr %_z, ptr %_z.addr, align 8
  %this1 = load ptr, ptr %this.addr, align 8
  %0 = load ptr, ptr %_x.addr, align 8
  %1 = load float, ptr %0, align 4
  %m_floats = getelementptr inbounds %class.btVector3, ptr %this1, i32 0, i32 0
  %arrayidx = getelementptr inbounds [4 x float], ptr %m_floats, i64 0, i64 0
  store float %1, ptr %arrayidx, align 4
  %2 = load ptr, ptr %_y.addr, align 8
  %3 = load float, ptr %2, align 4
  %m_floats2 = getelementptr inbounds %class.btVector3, ptr %this1, i32 0, i32 0
  %arrayidx3 = getelementptr inbounds [4 x float], ptr %m_floats2, i64 0, i64 1
  store float %3, ptr %arrayidx3, align 4
  %4 = load ptr, ptr %_z.addr, align 8
  %5 = load float, ptr %4, align 4
  %m_floats4 = getelementptr inbounds %class.btVector3, ptr %this1, i32 0, i32 0
  %arrayidx5 = getelementptr inbounds [4 x float], ptr %m_floats4, i64 0, i64 2
  store float %5, ptr %arrayidx5, align 4
  %m_floats6 = getelementptr inbounds %class.btVector3, ptr %this1, i32 0, i32 0
  %arrayidx7 = getelementptr inbounds [4 x float], ptr %m_floats6, i64 0, i64 3
  store float 0.000000e+00, ptr %arrayidx7, align 4
  ret void
}

; Function Attrs: mustprogress nounwind uwtable
define linkonce_odr dso_local noundef ptr @_ZNK9btVector3cvPKfEv(ptr noundef nonnull align 4 dereferenceable(16) %this) #1 comdat align 2 {
entry:
  %this.addr = alloca ptr, align 8
  store ptr %this, ptr %this.addr, align 8
  %this1 = load ptr, ptr %this.addr, align 8
  %m_floats = getelementptr inbounds %class.btVector3, ptr %this1, i32 0, i32 0
  %arrayidx = getelementptr inbounds [4 x float], ptr %m_floats, i64 0, i64 0
  ret ptr %arrayidx
}

; Function Attrs: mustprogress nounwind uwtable
define linkonce_odr dso_local noundef float @_Z7btAtan2ff(float noundef %x, float noundef %y) #1 comdat {
entry:
  %x.addr = alloca float, align 4
  %y.addr = alloca float, align 4
  store float %x, ptr %x.addr, align 4
  store float %y, ptr %y.addr, align 4
  %0 = load float, ptr %x.addr, align 4
  %1 = load float, ptr %y.addr, align 4
  %call = call float @atan2f(float noundef %0, float noundef %1) #10
  ret float %call
}

; Function Attrs: mustprogress nounwind uwtable
define linkonce_odr dso_local noundef float @_ZNK9btVector33dotERKS_(ptr noundef nonnull align 4 dereferenceable(16) %this, ptr noundef nonnull align 4 dereferenceable(16) %v) #1 comdat align 2 {
entry:
  %this.addr = alloca ptr, align 8
  %v.addr = alloca ptr, align 8
  store ptr %this, ptr %this.addr, align 8
  store ptr %v, ptr %v.addr, align 8
  %this1 = load ptr, ptr %this.addr, align 8
  %m_floats = getelementptr inbounds %class.btVector3, ptr %this1, i32 0, i32 0
  %arrayidx = getelementptr inbounds [4 x float], ptr %m_floats, i64 0, i64 0
  %0 = load float, ptr %arrayidx, align 4
  %1 = load ptr, ptr %v.addr, align 8
  %m_floats2 = getelementptr inbounds %class.btVector3, ptr %1, i32 0, i32 0
  %arrayidx3 = getelementptr inbounds [4 x float], ptr %m_floats2, i64 0, i64 0
  %2 = load float, ptr %arrayidx3, align 4
  %m_floats4 = getelementptr inbounds %class.btVector3, ptr %this1, i32 0, i32 0
  %arrayidx5 = getelementptr inbounds [4 x float], ptr %m_floats4, i64 0, i64 1
  %3 = load float, ptr %arrayidx5, align 4
  %4 = load ptr, ptr %v.addr, align 8
  %m_floats6 = getelementptr inbounds %class.btVector3, ptr %4, i32 0, i32 0
  %arrayidx7 = getelementptr inbounds [4 x float], ptr %m_floats6, i64 0, i64 1
  %5 = load float, ptr %arrayidx7, align 4
  %mul8 = fmul float %3, %5
  %6 = call float @llvm.fmuladd.f32(float %0, float %2, float %mul8)
  %m_floats9 = getelementptr inbounds %class.btVector3, ptr %this1, i32 0, i32 0
  %arrayidx10 = getelementptr inbounds [4 x float], ptr %m_floats9, i64 0, i64 2
  %7 = load float, ptr %arrayidx10, align 4
  %8 = load ptr, ptr %v.addr, align 8
  %m_floats11 = getelementptr inbounds %class.btVector3, ptr %8, i32 0, i32 0
  %arrayidx12 = getelementptr inbounds [4 x float], ptr %m_floats11, i64 0, i64 2
  %9 = load float, ptr %arrayidx12, align 4
  %10 = call float @llvm.fmuladd.f32(float %7, float %9, float %6)
  ret float %10
}

; Function Attrs: mustprogress uwtable
define linkonce_odr dso_local { <2 x float>, <2 x float> } @_ZmlRK11btMatrix3x3RK9btVector3(ptr noundef nonnull align 4 dereferenceable(48) %m, ptr noundef nonnull align 4 dereferenceable(16) %v) #4 comdat {
entry:
  %retval = alloca %class.btVector3, align 4
  %m.addr = alloca ptr, align 8
  %v.addr = alloca ptr, align 8
  %ref.tmp = alloca float, align 4
  %ref.tmp2 = alloca float, align 4
  %ref.tmp5 = alloca float, align 4
  store ptr %m, ptr %m.addr, align 8
  store ptr %v, ptr %v.addr, align 8
  %0 = load ptr, ptr %m.addr, align 8
  %call = call noundef nonnull align 4 dereferenceable(16) ptr @_ZNK11btMatrix3x3ixEi(ptr noundef nonnull align 4 dereferenceable(48) %0, i32 noundef 0)
  %1 = load ptr, ptr %v.addr, align 8
  %call1 = call noundef float @_ZNK9btVector33dotERKS_(ptr noundef nonnull align 4 dereferenceable(16) %call, ptr noundef nonnull align 4 dereferenceable(16) %1)
  store float %call1, ptr %ref.tmp, align 4
  %2 = load ptr, ptr %m.addr, align 8
  %call3 = call noundef nonnull align 4 dereferenceable(16) ptr @_ZNK11btMatrix3x3ixEi(ptr noundef nonnull align 4 dereferenceable(48) %2, i32 noundef 1)
  %3 = load ptr, ptr %v.addr, align 8
  %call4 = call noundef float @_ZNK9btVector33dotERKS_(ptr noundef nonnull align 4 dereferenceable(16) %call3, ptr noundef nonnull align 4 dereferenceable(16) %3)
  store float %call4, ptr %ref.tmp2, align 4
  %4 = load ptr, ptr %m.addr, align 8
  %call6 = call noundef nonnull align 4 dereferenceable(16) ptr @_ZNK11btMatrix3x3ixEi(ptr noundef nonnull align 4 dereferenceable(48) %4, i32 noundef 2)
  %5 = load ptr, ptr %v.addr, align 8
  %call7 = call noundef float @_ZNK9btVector33dotERKS_(ptr noundef nonnull align 4 dereferenceable(16) %call6, ptr noundef nonnull align 4 dereferenceable(16) %5)
  store float %call7, ptr %ref.tmp5, align 4
  call void @_ZN9btVector3C2ERKfS1_S1_(ptr noundef nonnull align 4 dereferenceable(16) %retval, ptr noundef nonnull align 4 dereferenceable(4) %ref.tmp, ptr noundef nonnull align 4 dereferenceable(4) %ref.tmp2, ptr noundef nonnull align 4 dereferenceable(4) %ref.tmp5)
  %coerce.dive = getelementptr inbounds %class.btVector3, ptr %retval, i32 0, i32 0
  %6 = load { <2 x float>, <2 x float> }, ptr %coerce.dive, align 4
  ret { <2 x float>, <2 x float> } %6
}

; Function Attrs: mustprogress uwtable
define linkonce_odr dso_local { <2 x float>, <2 x float> } @_ZNK11btMatrix3x39getColumnEi(ptr noundef nonnull align 4 dereferenceable(48) %this, i32 noundef %i) #4 comdat align 2 {
entry:
  %retval = alloca %class.btVector3, align 4
  %this.addr = alloca ptr, align 8
  %i.addr = alloca i32, align 4
  store ptr %this, ptr %this.addr, align 8
  store i32 %i, ptr %i.addr, align 4
  %this1 = load ptr, ptr %this.addr, align 8
  %m_el = getelementptr inbounds %class.btMatrix3x3, ptr %this1, i32 0, i32 0
  %arrayidx = getelementptr inbounds [3 x %class.btVector3], ptr %m_el, i64 0, i64 0
  %call = call noundef ptr @_ZNK9btVector3cvPKfEv(ptr noundef nonnull align 4 dereferenceable(16) %arrayidx)
  %0 = load i32, ptr %i.addr, align 4
  %idxprom = sext i32 %0 to i64
  %arrayidx2 = getelementptr inbounds float, ptr %call, i64 %idxprom
  %m_el3 = getelementptr inbounds %class.btMatrix3x3, ptr %this1, i32 0, i32 0
  %arrayidx4 = getelementptr inbounds [3 x %class.btVector3], ptr %m_el3, i64 0, i64 1
  %call5 = call noundef ptr @_ZNK9btVector3cvPKfEv(ptr noundef nonnull align 4 dereferenceable(16) %arrayidx4)
  %1 = load i32, ptr %i.addr, align 4
  %idxprom6 = sext i32 %1 to i64
  %arrayidx7 = getelementptr inbounds float, ptr %call5, i64 %idxprom6
  %m_el8 = getelementptr inbounds %class.btMatrix3x3, ptr %this1, i32 0, i32 0
  %arrayidx9 = getelementptr inbounds [3 x %class.btVector3], ptr %m_el8, i64 0, i64 2
  %call10 = call noundef ptr @_ZNK9btVector3cvPKfEv(ptr noundef nonnull align 4 dereferenceable(16) %arrayidx9)
  %2 = load i32, ptr %i.addr, align 4
  %idxprom11 = sext i32 %2 to i64
  %arrayidx12 = getelementptr inbounds float, ptr %call10, i64 %idxprom11
  call void @_ZN9btVector3C2ERKfS1_S1_(ptr noundef nonnull align 4 dereferenceable(16) %retval, ptr noundef nonnull align 4 dereferenceable(4) %arrayidx2, ptr noundef nonnull align 4 dereferenceable(4) %arrayidx7, ptr noundef nonnull align 4 dereferenceable(4) %arrayidx12)
  %coerce.dive = getelementptr inbounds %class.btVector3, ptr %retval, i32 0, i32 0
  %3 = load { <2 x float>, <2 x float> }, ptr %coerce.dive, align 4
  ret { <2 x float>, <2 x float> } %3
}

; Function Attrs: mustprogress nounwind uwtable
define linkonce_odr dso_local noundef nonnull align 4 dereferenceable(48) ptr @_ZN11btTransform8getBasisEv(ptr noundef nonnull align 4 dereferenceable(64) %this) #1 comdat align 2 {
entry:
  %this.addr = alloca ptr, align 8
  store ptr %this, ptr %this.addr, align 8
  %this1 = load ptr, ptr %this.addr, align 8
  %m_basis = getelementptr inbounds %class.btTransform, ptr %this1, i32 0, i32 0
  ret ptr %m_basis
}

; Function Attrs: mustprogress nounwind uwtable
define linkonce_odr dso_local noundef nonnull align 4 dereferenceable(48) ptr @_ZNK11btTransform8getBasisEv(ptr noundef nonnull align 4 dereferenceable(64) %this) #1 comdat align 2 {
entry:
  %this.addr = alloca ptr, align 8
  store ptr %this, ptr %this.addr, align 8
  %this1 = load ptr, ptr %this.addr, align 8
  %m_basis = getelementptr inbounds %class.btTransform, ptr %this1, i32 0, i32 0
  ret ptr %m_basis
}

; Function Attrs: mustprogress uwtable
define dso_local noundef float @_ZN17btHingeConstraint13getHingeAngleERK11btTransformS2_(ptr noundef nonnull align 8 dereferenceable(792) %this, ptr noundef nonnull align 4 dereferenceable(64) %transA, ptr noundef nonnull align 4 dereferenceable(64) %transB) #2 align 2 {
entry:
  %this.addr = alloca ptr, align 8
  %transA.addr = alloca ptr, align 8
  %transB.addr = alloca ptr, align 8
  %refAxis0 = alloca %class.btVector3, align 4
  %ref.tmp = alloca %class.btVector3, align 4
  %refAxis1 = alloca %class.btVector3, align 4
  %ref.tmp7 = alloca %class.btVector3, align 4
  %swingAxis = alloca %class.btVector3, align 4
  %ref.tmp15 = alloca %class.btVector3, align 4
  %angle = alloca float, align 4
  store ptr %this, ptr %this.addr, align 8
  store ptr %transA, ptr %transA.addr, align 8
  store ptr %transB, ptr %transB.addr, align 8
  %this1 = load ptr, ptr %this.addr, align 8
  %0 = load ptr, ptr %transA.addr, align 8
  %call = call noundef nonnull align 4 dereferenceable(48) ptr @_ZNK11btTransform8getBasisEv(ptr noundef nonnull align 4 dereferenceable(64) %0)
  %m_rbAFrame = getelementptr inbounds %class.btHingeConstraint, ptr %this1, i32 0, i32 3
  %call2 = call noundef nonnull align 4 dereferenceable(48) ptr @_ZN11btTransform8getBasisEv(ptr noundef nonnull align 4 dereferenceable(64) %m_rbAFrame)
  %call3 = call { <2 x float>, <2 x float> } @_ZNK11btMatrix3x39getColumnEi(ptr noundef nonnull align 4 dereferenceable(48) %call2, i32 noundef 0)
  %coerce.dive = getelementptr inbounds %class.btVector3, ptr %ref.tmp, i32 0, i32 0
  %1 = getelementptr inbounds { <2 x float>, <2 x float> }, ptr %coerce.dive, i32 0, i32 0
  %2 = extractvalue { <2 x float>, <2 x float> } %call3, 0
  store <2 x float> %2, ptr %1, align 4
  %3 = getelementptr inbounds { <2 x float>, <2 x float> }, ptr %coerce.dive, i32 0, i32 1
  %4 = extractvalue { <2 x float>, <2 x float> } %call3, 1
  store <2 x float> %4, ptr %3, align 4
  %call4 = call { <2 x float>, <2 x float> } @_ZmlRK11btMatrix3x3RK9btVector3(ptr noundef nonnull align 4 dereferenceable(48) %call, ptr noundef nonnull align 4 dereferenceable(16) %ref.tmp)
  %coerce.dive5 = getelementptr inbounds %class.btVector3, ptr %refAxis0, i32 0, i32 0
  %5 = getelementptr inbounds { <2 x float>, <2 x float> }, ptr %coerce.dive5, i32 0, i32 0
  %6 = extractvalue { <2 x float>, <2 x float> } %call4, 0
  store <2 x float> %6, ptr %5, align 4
  %7 = getelementptr inbounds { <2 x float>, <2 x float> }, ptr %coerce.dive5, i32 0, i32 1
  %8 = extractvalue { <2 x float>, <2 x float> } %call4, 1
  store <2 x float> %8, ptr %7, align 4
  %9 = load ptr, ptr %transA.addr, align 8
  %call6 = call noundef nonnull align 4 dereferenceable(48) ptr @_ZNK11btTransform8getBasisEv(ptr noundef nonnull align 4 dereferenceable(64) %9)
  %m_rbAFrame8 = getelementptr inbounds %class.btHingeConstraint, ptr %this1, i32 0, i32 3
  %call9 = call noundef nonnull align 4 dereferenceable(48) ptr @_ZN11btTransform8getBasisEv(ptr noundef nonnull align 4 dereferenceable(64) %m_rbAFrame8)
  %call10 = call { <2 x float>, <2 x float> } @_ZNK11btMatrix3x39getColumnEi(ptr noundef nonnull align 4 dereferenceable(48) %call9, i32 noundef 1)
  %coerce.dive11 = getelementptr inbounds %class.btVector3, ptr %ref.tmp7, i32 0, i32 0
  %10 = getelementptr inbounds { <2 x float>, <2 x float> }, ptr %coerce.dive11, i32 0, i32 0
  %11 = extractvalue { <2 x float>, <2 x float> } %call10, 0
  store <2 x float> %11, ptr %10, align 4
  %12 = getelementptr inbounds { <2 x float>, <2 x float> }, ptr %coerce.dive11, i32 0, i32 1
  %13 = extractvalue { <2 x float>, <2 x float> } %call10, 1
  store <2 x float> %13, ptr %12, align 4
  %call12 = call { <2 x float>, <2 x float> } @_ZmlRK11btMatrix3x3RK9btVector3(ptr noundef nonnull align 4 dereferenceable(48) %call6, ptr noundef nonnull align 4 dereferenceable(16) %ref.tmp7)
  %coerce.dive13 = getelementptr inbounds %class.btVector3, ptr %refAxis1, i32 0, i32 0
  %14 = getelementptr inbounds { <2 x float>, <2 x float> }, ptr %coerce.dive13, i32 0, i32 0
  %15 = extractvalue { <2 x float>, <2 x float> } %call12, 0
  store <2 x float> %15, ptr %14, align 4
  %16 = getelementptr inbounds { <2 x float>, <2 x float> }, ptr %coerce.dive13, i32 0, i32 1
  %17 = extractvalue { <2 x float>, <2 x float> } %call12, 1
  store <2 x float> %17, ptr %16, align 4
  %18 = load ptr, ptr %transB.addr, align 8
  %call14 = call noundef nonnull align 4 dereferenceable(48) ptr @_ZNK11btTransform8getBasisEv(ptr noundef nonnull align 4 dereferenceable(64) %18)
  %m_rbBFrame = getelementptr inbounds %class.btHingeConstraint, ptr %this1, i32 0, i32 4
  %call16 = call noundef nonnull align 4 dereferenceable(48) ptr @_ZN11btTransform8getBasisEv(ptr noundef nonnull align 4 dereferenceable(64) %m_rbBFrame)
  %call17 = call { <2 x float>, <2 x float> } @_ZNK11btMatrix3x39getColumnEi(ptr noundef nonnull align 4 dereferenceable(48) %call16, i32 noundef 1)
  %coerce.dive18 = getelementptr inbounds %class.btVector3, ptr %ref.tmp15, i32 0, i32 0
  %19 = getelementptr inbounds { <2 x float>, <2 x float> }, ptr %coerce.dive18, i32 0, i32 0
  %20 = extractvalue { <2 x float>, <2 x float> } %call17, 0
  store <2 x float> %20, ptr %19, align 4
  %21 = getelementptr inbounds { <2 x float>, <2 x float> }, ptr %coerce.dive18, i32 0, i32 1
  %22 = extractvalue { <2 x float>, <2 x float> } %call17, 1
  store <2 x float> %22, ptr %21, align 4
  %call19 = call { <2 x float>, <2 x float> } @_ZmlRK11btMatrix3x3RK9btVector3(ptr noundef nonnull align 4 dereferenceable(48) %call14, ptr noundef nonnull align 4 dereferenceable(16) %ref.tmp15)
  %coerce.dive20 = getelementptr inbounds %class.btVector3, ptr %swingAxis, i32 0, i32 0
  %23 = getelementptr inbounds { <2 x float>, <2 x float> }, ptr %coerce.dive20, i32 0, i32 0
  %24 = extractvalue { <2 x float>, <2 x float> } %call19, 0
  store <2 x float> %24, ptr %23, align 4
  %25 = getelementptr inbounds { <2 x float>, <2 x float> }, ptr %coerce.dive20, i32 0, i32 1
  %26 = extractvalue { <2 x float>, <2 x float> } %call19, 1
  store <2 x float> %26, ptr %25, align 4
  %call21 = call noundef float @_ZNK9btVector33dotERKS_(ptr noundef nonnull align 4 dereferenceable(16) %swingAxis, ptr noundef nonnull align 4 dereferenceable(16) %refAxis0)
  %call22 = call noundef float @_ZNK9btVector33dotERKS_(ptr noundef nonnull align 4 dereferenceable(16) %swingAxis, ptr noundef nonnull align 4 dereferenceable(16) %refAxis1)
  %call23 = call noundef float @_Z7btAtan2ff(float noundef %call21, float noundef %call22)
  store float %call23, ptr %angle, align 4
  %m_referenceSign = getelementptr inbounds %class.btHingeConstraint, ptr %this1, i32 0, i32 11
  %27 = load float, ptr %m_referenceSign, align 4
  %28 = load float, ptr %angle, align 4
  %mul = fmul float %27, %28
  ret float %mul
}

; Function Attrs: mustprogress nounwind uwtable
define linkonce_odr dso_local noundef nonnull align 4 dereferenceable(64) ptr @_ZNK11btRigidBody24getCenterOfMassTransformEv(ptr noundef nonnull align 8 dereferenceable(744) %this) #1 comdat align 2 {
entry:
  %this.addr = alloca ptr, align 8
  store ptr %this, ptr %this.addr, align 8
  %this1 = load ptr, ptr %this.addr, align 8
  %m_worldTransform = getelementptr inbounds %class.btCollisionObject, ptr %this1, i32 0, i32 1
  ret ptr %m_worldTransform
}

; Function Attrs: mustprogress uwtable
define dso_local noundef float @_ZN17btHingeConstraint13getHingeAngleEv(ptr noundef nonnull align 8 dereferenceable(792) %this) #4 align 2 {
entry:
  %this.addr = alloca ptr, align 8
  store ptr %this, ptr %this.addr, align 8
  %this1 = load ptr, ptr %this.addr, align 8
  %m_rbA = getelementptr inbounds %class.btTypedConstraint, ptr %this1, i32 0, i32 8
  %0 = load ptr, ptr %m_rbA, align 8
  %call = call noundef nonnull align 4 dereferenceable(64) ptr @_ZNK11btRigidBody24getCenterOfMassTransformEv(ptr noundef nonnull align 8 dereferenceable(744) %0)
  %m_rbB = getelementptr inbounds %class.btTypedConstraint, ptr %this1, i32 0, i32 9
  %1 = load ptr, ptr %m_rbB, align 8
  %call2 = call noundef nonnull align 4 dereferenceable(64) ptr @_ZNK11btRigidBody24getCenterOfMassTransformEv(ptr noundef nonnull align 8 dereferenceable(744) %1)
  %call3 = call noundef float @_ZN17btHingeConstraint13getHingeAngleERK11btTransformS2_(ptr noundef nonnull align 8 dereferenceable(792) %this1, ptr noundef nonnull align 4 dereferenceable(64) %call, ptr noundef nonnull align 4 dereferenceable(64) %call2)
  ret float %call3
}