; Function Attrs: mustprogress nofree nounwind willreturn memory(readwrite, inaccessiblemem: write) uwtable
define dso_local noundef float @_ZN17btHingeConstraint13getHingeAngleEv(ptr nocapture noundef nonnull readonly align 8 dereferenceable(792) %this) local_unnamed_addr #5 align 2 {
entry:
  %m_rbA = getelementptr inbounds i8, ptr %this, i64 40
  %0 = load ptr, ptr %m_rbA, align 8
  %m_worldTransform.i = getelementptr inbounds i8, ptr %0, i64 8
  %m_rbB = getelementptr inbounds i8, ptr %this, i64 48
  %1 = load ptr, ptr %m_rbB, align 8
  %m_worldTransform.i1 = getelementptr inbounds i8, ptr %1, i64 8
  %m_rbAFrame.i = getelementptr inbounds i8, ptr %this, i64 576
  %arrayidx4.i.i = getelementptr inbounds i8, ptr %this, i64 592
  %arrayidx9.i.i = getelementptr inbounds i8, ptr %this, i64 608
  %2 = load float, ptr %m_rbAFrame.i, align 8
  %3 = load float, ptr %arrayidx4.i.i, align 8
  %4 = load float, ptr %arrayidx9.i.i, align 8
  %5 = load float, ptr %m_worldTransform.i, align 4
  %arrayidx5.i.i.i = getelementptr inbounds i8, ptr %0, i64 12
  %6 = load float, ptr %arrayidx5.i.i.i, align 4
  %mul8.i.i.i = fmul float %3, %6
  %7 = tail call float @llvm.fmuladd.f32(float %5, float %2, float %mul8.i.i.i)
  %arrayidx10.i.i.i = getelementptr inbounds i8, ptr %0, i64 16
  %8 = load float, ptr %arrayidx10.i.i.i, align 4
  %9 = tail call noundef float @llvm.fmuladd.f32(float %8, float %4, float %7)
  %arrayidx.i.i.i = getelementptr inbounds i8, ptr %0, i64 24
  %10 = load float, ptr %arrayidx.i.i.i, align 4
  %arrayidx5.i5.i.i = getelementptr inbounds i8, ptr %0, i64 28
  %11 = load float, ptr %arrayidx5.i5.i.i, align 4
  %arrayidx10.i8.i.i = getelementptr inbounds i8, ptr %0, i64 32
  %12 = load float, ptr %arrayidx10.i8.i.i, align 4
  %arrayidx.i10.i.i = getelementptr inbounds i8, ptr %0, i64 40
  %13 = load float, ptr %arrayidx.i10.i.i, align 4
  %arrayidx5.i11.i.i = getelementptr inbounds i8, ptr %0, i64 44
  %14 = load float, ptr %arrayidx5.i11.i.i, align 4
  %mul8.i13.i.i = fmul float %3, %14
  %15 = tail call float @llvm.fmuladd.f32(float %13, float %2, float %mul8.i13.i.i)
  %arrayidx10.i14.i.i = getelementptr inbounds i8, ptr %0, i64 48
  %16 = load float, ptr %arrayidx10.i14.i.i, align 4
  %17 = tail call noundef float @llvm.fmuladd.f32(float %16, float %4, float %15)
  %arrayidx2.i.i = getelementptr inbounds i8, ptr %this, i64 580
  %arrayidx7.i.i = getelementptr inbounds i8, ptr %this, i64 596
  %arrayidx12.i.i = getelementptr inbounds i8, ptr %this, i64 612
  %18 = load float, ptr %arrayidx2.i.i, align 4
  %19 = load float, ptr %arrayidx7.i.i, align 4
  %20 = load float, ptr %arrayidx12.i.i, align 4
  %mul8.i.i16.i = fmul float %6, %19
  %21 = tail call float @llvm.fmuladd.f32(float %5, float %18, float %mul8.i.i16.i)
  %22 = tail call noundef float @llvm.fmuladd.f32(float %8, float %20, float %21)
  %mul8.i7.i21.i = fmul float %11, %19
  %23 = tail call float @llvm.fmuladd.f32(float %10, float %18, float %mul8.i7.i21.i)
  %24 = tail call noundef float @llvm.fmuladd.f32(float %12, float %20, float %23)
  %mul8.i13.i25.i = fmul float %14, %19
  %25 = tail call float @llvm.fmuladd.f32(float %13, float %18, float %mul8.i13.i25.i)
  %26 = tail call noundef float @llvm.fmuladd.f32(float %16, float %20, float %25)
  %arrayidx2.i32.i = getelementptr inbounds i8, ptr %this, i64 644
  %arrayidx7.i34.i = getelementptr inbounds i8, ptr %this, i64 660
  %arrayidx12.i36.i = getelementptr inbounds i8, ptr %this, i64 676
  %27 = load float, ptr %arrayidx2.i32.i, align 4
  %28 = load float, ptr %arrayidx7.i34.i, align 4
  %29 = load float, ptr %arrayidx12.i36.i, align 4
  %30 = load float, ptr %m_worldTransform.i1, align 4
  %arrayidx5.i.i42.i = getelementptr inbounds i8, ptr %1, i64 12
  %31 = load float, ptr %arrayidx5.i.i42.i, align 4
  %mul8.i.i44.i = fmul float %28, %31
  %32 = tail call float @llvm.fmuladd.f32(float %30, float %27, float %mul8.i.i44.i)
  %arrayidx10.i.i45.i = getelementptr inbounds i8, ptr %1, i64 16
  %33 = load float, ptr %arrayidx10.i.i45.i, align 4
  %34 = tail call noundef float @llvm.fmuladd.f32(float %33, float %29, float %32)
  %arrayidx.i.i47.i = getelementptr inbounds i8, ptr %1, i64 24
  %35 = load float, ptr %arrayidx.i.i47.i, align 4
  %arrayidx5.i5.i48.i = getelementptr inbounds i8, ptr %1, i64 28
  %36 = load float, ptr %arrayidx5.i5.i48.i, align 4
  %arrayidx10.i8.i50.i = getelementptr inbounds i8, ptr %1, i64 32
  %37 = load float, ptr %arrayidx10.i8.i50.i, align 4
  %38 = insertelement <2 x float> poison, float %3, i64 0
  %39 = insertelement <2 x float> %38, float %28, i64 1
  %40 = insertelement <2 x float> poison, float %11, i64 0
  %41 = insertelement <2 x float> %40, float %36, i64 1
  %42 = fmul <2 x float> %39, %41
  %43 = insertelement <2 x float> poison, float %10, i64 0
  %44 = insertelement <2 x float> %43, float %35, i64 1
  %45 = insertelement <2 x float> poison, float %2, i64 0
  %46 = insertelement <2 x float> %45, float %27, i64 1
  %47 = tail call <2 x float> @llvm.fmuladd.v2f32(<2 x float> %44, <2 x float> %46, <2 x float> %42)
  %48 = insertelement <2 x float> poison, float %12, i64 0
  %49 = insertelement <2 x float> %48, float %37, i64 1
  %50 = insertelement <2 x float> poison, float %4, i64 0
  %51 = insertelement <2 x float> %50, float %29, i64 1
  %52 = tail call <2 x float> @llvm.fmuladd.v2f32(<2 x float> %49, <2 x float> %51, <2 x float> %47)
  %arrayidx.i10.i51.i = getelementptr inbounds i8, ptr %1, i64 40
  %53 = load float, ptr %arrayidx.i10.i51.i, align 4
  %arrayidx5.i11.i52.i = getelementptr inbounds i8, ptr %1, i64 44
  %54 = load float, ptr %arrayidx5.i11.i52.i, align 4
  %mul8.i13.i53.i = fmul float %28, %54
  %55 = tail call float @llvm.fmuladd.f32(float %53, float %27, float %mul8.i13.i53.i)
  %arrayidx10.i14.i54.i = getelementptr inbounds i8, ptr %1, i64 48
  %56 = load float, ptr %arrayidx10.i14.i54.i, align 4
  %57 = tail call noundef float @llvm.fmuladd.f32(float %56, float %29, float %55)
  %58 = extractelement <2 x float> %52, i64 0
  %59 = extractelement <2 x float> %52, i64 1
  %mul8.i.i = fmul float %58, %59
  %60 = tail call float @llvm.fmuladd.f32(float %34, float %9, float %mul8.i.i)
  %61 = tail call noundef float @llvm.fmuladd.f32(float %57, float %17, float %60)
  %mul8.i64.i = fmul float %24, %59
  %62 = tail call float @llvm.fmuladd.f32(float %34, float %22, float %mul8.i64.i)
  %63 = tail call noundef float @llvm.fmuladd.f32(float %57, float %26, float %62)
  %call.i.i = tail call noundef float @atan2f(float noundef %61, float noundef %63) #19
  %m_referenceSign.i = getelementptr inbounds i8, ptr %this, i64 756
  %64 = load float, ptr %m_referenceSign.i, align 4
  %mul.i = fmul float %call.i.i, %64
  ret float %mul.i
}